target datalayout = "e-m:e-p270:32:32-p271:32:32-p272:64:64-i64:64-i128:128-f80:128-n8:16:32:64-S128"
target triple = "x86_64-pc-linux-gnu"

%struct.Gla_Man_t_ = type { ptr, ptr, ptr, ptr, ptr, ptr, ptr, i32, i32, i32, i32, i32, ptr, ptr, ptr, ptr, ptr, ptr, ptr, i32, ptr, ptr, ptr, i64, i64, i64, i64, i64 }
%struct.Vec_Int_t_ = type { i32, i32, ptr }
%struct.Abs_Par_t_ = type { i32, i32, i32, i32, i32, i32, i32, i32, i32, i32, i32, i32, i32, i32, i32, i32, i32, i32, i32, i32, i32, i32, i32, i32, i32, ptr, i32, i32, i32, i32, i32, i32 }

@.str.24 = private unnamed_addr constant [10 x i8] c"glabs.aig\00", align 1
@.str.25 = private unnamed_addr constant [44 x i8] c"Dumping abstracted model into file \22%s\22...\0A\00", align 1

; Function Attrs: inlinehint nounwind uwtable
define internal void @Vec_IntFreeP(ptr noundef %0) #2 {
  %2 = alloca ptr, align 8
  store ptr %0, ptr %2, align 8, !tbaa !10
  %3 = load ptr, ptr %2, align 8, !tbaa !10
  %4 = load ptr, ptr %3, align 8, !tbaa !12
  %5 = icmp eq ptr %4, null
  br i1 %5, label %6, label %7

6:                                                ; preds = %1
  br label %32

7:                                                ; preds = %1
  %8 = load ptr, ptr %2, align 8, !tbaa !10
  %9 = load ptr, ptr %8, align 8, !tbaa !12
  %10 = getelementptr inbounds nuw %struct.Vec_Int_t_, ptr %9, i32 0, i32 2
  %11 = load ptr, ptr %10, align 8, !tbaa !48
  %12 = icmp ne ptr %11, null
  br i1 %12, label %13, label %21

13:                                               ; preds = %7
  %14 = load ptr, ptr %2, align 8, !tbaa !10
  %15 = load ptr, ptr %14, align 8, !tbaa !12
  %16 = getelementptr inbounds nuw %struct.Vec_Int_t_, ptr %15, i32 0, i32 2
  %17 = load ptr, ptr %16, align 8, !tbaa !48
  call void @free(ptr noundef %17) #13
  %18 = load ptr, ptr %2, align 8, !tbaa !10
  %19 = load ptr, ptr %18, align 8, !tbaa !12
  %20 = getelementptr inbounds nuw %struct.Vec_Int_t_, ptr %19, i32 0, i32 2
  store ptr null, ptr %20, align 8, !tbaa !48
  br label %22

21:                                               ; preds = %7
  br label %22

22:                                               ; preds = %21, %13
  %23 = load ptr, ptr %2, align 8, !tbaa !10
  %24 = load ptr, ptr %23, align 8, !tbaa !12
  %25 = icmp ne ptr %24, null
  br i1 %25, label %26, label %30

26:                                               ; preds = %22
  %27 = load ptr, ptr %2, align 8, !tbaa !10
  %28 = load ptr, ptr %27, align 8, !tbaa !12
  call void @free(ptr noundef %28) #13
  %29 = load ptr, ptr %2, align 8, !tbaa !10
  store ptr null, ptr %29, align 8, !tbaa !12
  br label %31

30:                                               ; preds = %22
  br label %31

31:                                               ; preds = %30, %26
  br label %32

32:                                               ; preds = %31, %6
  ret void
}

; Function Attrs: nounwind uwtable
define void @Gia_GlaDumpAbsracted(ptr noundef %0, i32 noundef %1) #0 {
  %3 = alloca ptr, align 8
  %4 = alloca i32, align 4
  %5 = alloca ptr, align 8
  %6 = alloca ptr, align 8
  %7 = alloca ptr, align 8
  %8 = alloca ptr, align 8
  store ptr %0, ptr %3, align 8, !tbaa !3
  store i32 %1, ptr %4, align 4, !tbaa !14
  call void @llvm.lifetime.start.p0(i64 8, ptr %5) #13
  store ptr @.str.24, ptr %5, align 8, !tbaa !101
  call void @llvm.lifetime.start.p0(i64 8, ptr %6) #13
  %9 = load ptr, ptr %3, align 8, !tbaa !3
  %10 = getelementptr inbounds nuw %struct.Gla_Man_t_, ptr %9, i32 0, i32 2
  %11 = load ptr, ptr %10, align 8, !tbaa !33
  %12 = getelementptr inbounds nuw %struct.Abs_Par_t_, ptr %11, i32 0, i32 25
  %13 = load ptr, ptr %12, align 8, !tbaa !220
  %14 = icmp ne ptr %13, null
  br i1 %14, label %15, label %21

15:                                               ; preds = %2
  %16 = load ptr, ptr %3, align 8, !tbaa !3
  %17 = getelementptr inbounds nuw %struct.Gla_Man_t_, ptr %16, i32 0, i32 2
  %18 = load ptr, ptr %17, align 8, !tbaa !33
  %19 = getelementptr inbounds nuw %struct.Abs_Par_t_, ptr %18, i32 0, i32 25
  %20 = load ptr, ptr %19, align 8, !tbaa !220
  br label %23

21:                                               ; preds = %2
  %22 = load ptr, ptr %5, align 8, !tbaa !101
  br label %23

23:                                               ; preds = %21, %15
  %24 = phi ptr [ %20, %15 ], [ %22, %21 ]
  store ptr %24, ptr %6, align 8, !tbaa !101
  call void @llvm.lifetime.start.p0(i64 8, ptr %7) #13
  call void @llvm.lifetime.start.p0(i64 8, ptr %8) #13
  %25 = load i32, ptr %4, align 4, !tbaa !14
  %26 = icmp ne i32 %25, 0
  br i1 %26, label %27, label %29

27:                                               ; preds = %23
  %28 = load ptr, ptr %6, align 8, !tbaa !101
  call void (i32, ptr, ...) @Abc_Print(i32 noundef 1, ptr noundef @.str.25, ptr noundef %28)
  br label %29

29:                                               ; preds = %27, %23
  %30 = load ptr, ptr %3, align 8, !tbaa !3
  %31 = call ptr @Gla_ManTranslate(ptr noundef %30)
  store ptr %31, ptr %8, align 8, !tbaa !12
  %32 = load ptr, ptr %3, align 8, !tbaa !3
  %33 = getelementptr inbounds nuw %struct.Gla_Man_t_, ptr %32, i32 0, i32 0
  %34 = load ptr, ptr %33, align 8, !tbaa !141
  %35 = load ptr, ptr %8, align 8, !tbaa !12
  %36 = call ptr @Gia_ManDupAbsGates(ptr noundef %34, ptr noundef %35)
  store ptr %36, ptr %7, align 8, !tbaa !51
  call void @Vec_IntFreeP(ptr noundef %8)
  %37 = load ptr, ptr %7, align 8, !tbaa !51
  %38 = load ptr, ptr %6, align 8, !tbaa !101
  call void @Gia_AigerWrite(ptr noundef %37, ptr noundef %38, i32 noundef 0, i32 noundef 0, i32 noundef 0)
  %39 = load ptr, ptr %7, align 8, !tbaa !51
  call void @Gia_ManStop(ptr noundef %39)
  call void @llvm.lifetime.end.p0(i64 8, ptr %8) #13
  call void @llvm.lifetime.end.p0(i64 8, ptr %7) #13
  call void @llvm.lifetime.end.p0(i64 8, ptr %6) #13
  call void @llvm.lifetime.end.p0(i64 8, ptr %5) #13
  ret void
}