; Function Attrs: nounwind uwtable
define void @Gia_GlaDumpAbsracted(ptr noundef readonly captures(none) %0, i32 noundef %1) local_unnamed_addr #0 {
  %3 = getelementptr inbounds nuw i8, ptr %0, i64 16
  %4 = load ptr, ptr %3, align 8, !tbaa !30
  %5 = getelementptr inbounds nuw i8, ptr %4, i64 104
  %6 = load ptr, ptr %5, align 8, !tbaa !218
  %.not = icmp eq ptr %6, null
  %.str.24. = select i1 %.not, ptr @.str.24, ptr %6
  %.not9 = icmp eq i32 %1, 0
  br i1 %.not9, label %8, label %7

7:                                                ; preds = %2
  tail call void (i32, ptr, ...) @Abc_Print(i32 poison, ptr noundef nonnull @.str.25, ptr noundef nonnull %.str.24.)
  br label %8

8:                                                ; preds = %7, %2
  %9 = tail call ptr @Gla_ManTranslate(ptr noundef nonnull %0)
  %10 = load ptr, ptr %0, align 8, !tbaa !144
  %11 = tail call ptr @Gia_ManDupAbsGates(ptr noundef %10, ptr noundef %9) #29
  %12 = icmp eq ptr %9, null
  br i1 %12, label %Vec_IntFreeP.exit, label %13

13:                                               ; preds = %8
  %14 = getelementptr inbounds nuw i8, ptr %9, i64 8
  %15 = load ptr, ptr %14, align 8, !tbaa !11
  %.not.i = icmp eq ptr %15, null
  br i1 %.not.i, label %16, label %.thread.i

.thread.i:                                        ; preds = %13
  tail call void @free(ptr noundef nonnull %15) #29
  br label %16

16:                                               ; preds = %.thread.i, %13
  tail call void @free(ptr noundef nonnull %9) #29
  br label %Vec_IntFreeP.exit

Vec_IntFreeP.exit:                                ; preds = %8, %16
  tail call void @Gia_AigerWrite(ptr noundef %11, ptr noundef nonnull %.str.24., i32 noundef 0, i32 noundef 0, i32 noundef 0) #29
  tail call void @Gia_ManStop(ptr noundef %11) #29
  ret void
}